target datalayout = "e-m:e-p270:32:32-p271:32:32-p272:64:64-i64:64-i128:128-f80:128-n8:16:32:64-S128"
target triple = "x86_64-pc-linux-gnu"

%struct.H5VL_file_cont_info_t = type { i32, i64, i64, i64 }
%struct.H5VL_file_get_args_t = type { i32, %union.anon.10 }
%union.anon.10 = type { %struct.H5VL_file_get_name_args_t }
%struct.H5VL_file_get_name_args_t = type { i32, i64, ptr, ptr }
%struct.anon.11 = type { ptr }

@.str = private unnamed_addr constant [103 x i8] c"generated/home/dtcxzyw/WorkSpace/Projects/compilers/llvm-opt-benchmark/bench/hdf5/hdf5/src/H5Rdeprec.c\00", align 1
@H5E_ARGS_g = external global i64, align 8
@H5E_BADTYPE_g = external global i64, align 8
@.str.5 = private unnamed_addr constant [28 x i8] c"invalid location identifier\00", align 1
@H5E_REFERENCE_g = external global i64, align 8
@H5E_CANTGET_g = external global i64, align 8
@H5E_CANTDECODE_g = external global i64, align 8
@.str.8 = private unnamed_addr constant [27 x i8] c"unable to get object token\00", align 1
@H5P_LST_DATASET_XFER_ID_g = external global i64, align 8
@.str.18 = private unnamed_addr constant [26 x i8] c"not a file or file object\00", align 1
@.str.19 = private unnamed_addr constant [29 x i8] c"unable to get container info\00", align 1
@.str.23 = private unnamed_addr constant [19 x i8] c"invalid VOL object\00", align 1
@H5E_CANTDEC_g = external global i64, align 8
@.str.25 = private unnamed_addr constant [37 x i8] c"unable to decrement refcount on file\00", align 1
@__const.H5R__decode_token_compat.cont_info = private unnamed_addr constant %struct.H5VL_file_cont_info_t { i32 1, i64 0, i64 0, i64 0 }, align 8
@__func__.H5R__decode_token_compat = private unnamed_addr constant [25 x i8] c"H5R__decode_token_compat\00", align 1
@.str.34 = private unnamed_addr constant [29 x i8] c"unable to get object address\00", align 1

; Function Attrs: nounwind uwtable
define internal i32 @H5R__decode_token_compat(ptr noundef %0, i32 noundef %1, i32 noundef %2, ptr noundef %3, ptr noundef %4) #0 {
  %6 = alloca ptr, align 8
  %7 = alloca i32, align 4
  %8 = alloca i32, align 4
  %9 = alloca ptr, align 8
  %10 = alloca ptr, align 8
  %11 = alloca i64, align 8
  %12 = alloca ptr, align 8
  %13 = alloca %struct.H5VL_file_cont_info_t, align 8
  %14 = alloca %struct.H5VL_file_get_args_t, align 8
  %15 = alloca i32, align 4
  %16 = alloca i8, align 1
  %17 = alloca i64, align 8
  %18 = alloca i64, align 8
  %19 = alloca ptr, align 8
  store ptr %0, ptr %6, align 8
  store i32 %1, ptr %7, align 4
  store i32 %2, ptr %8, align 4
  store ptr %3, ptr %9, align 8
  store ptr %4, ptr %10, align 8
  store i64 -1, ptr %11, align 8
  store ptr null, ptr %12, align 8
  call void @llvm.memcpy.p0.p0.i64(ptr align 8 %13, ptr align 8 @__const.H5R__decode_token_compat.cont_info, i64 32, i1 false)
  store i32 0, ptr %15, align 4
  store i8 0, ptr %16, align 1
  %20 = load ptr, ptr %6, align 8
  %21 = load i32, ptr %7, align 4
  %22 = call i64 @H5F_get_file_id(ptr noundef %20, i32 noundef %21, i1 noundef zeroext false)
  store i64 %22, ptr %11, align 8
  %23 = icmp slt i64 %22, 0
  br i1 %23, label %24, label %39

24:                                               ; preds = %5
  br label %25

25:                                               ; preds = %24
  br label %26

26:                                               ; preds = %25
  br label %27

27:                                               ; preds = %26
  %28 = load i64, ptr @H5E_ARGS_g, align 8
  %29 = load i64, ptr @H5E_BADTYPE_g, align 8
  %30 = call i32 (ptr, ptr, i32, i64, i64, ptr, ...) @H5E_printf_stack(ptr noundef @.str, ptr noundef @__func__.H5R__decode_token_compat, i32 noundef 116, i64 noundef %28, i64 noundef %29, ptr noundef @.str.18)
  br label %31

31:                                               ; preds = %27
  store i8 1, ptr %16, align 1
  %32 = load i8, ptr %16, align 1
  %33 = trunc i8 %32 to i1
  %34 = zext i1 %33 to i8
  store i8 %34, ptr %16, align 1
  br label %35

35:                                               ; preds = %31
  br label %36

36:                                               ; preds = %35
  store i32 -1, ptr %15, align 4
  br label %151

37:                                               ; No predecessors!
  br label %38

38:                                               ; preds = %37
  br label %39

39:                                               ; preds = %38, %5
  %40 = load i64, ptr %11, align 8
  %41 = call ptr @H5VL_vol_object(i64 noundef %40)
  store ptr %41, ptr %12, align 8
  %42 = icmp eq ptr null, %41
  br i1 %42, label %43, label %58

43:                                               ; preds = %39
  br label %44

44:                                               ; preds = %43
  br label %45

45:                                               ; preds = %44
  br label %46

46:                                               ; preds = %45
  %47 = load i64, ptr @H5E_ARGS_g, align 8
  %48 = load i64, ptr @H5E_BADTYPE_g, align 8
  %49 = call i32 (ptr, ptr, i32, i64, i64, ptr, ...) @H5E_printf_stack(ptr noundef @.str, ptr noundef @__func__.H5R__decode_token_compat, i32 noundef 120, i64 noundef %47, i64 noundef %48, ptr noundef @.str.5)
  br label %50

50:                                               ; preds = %46
  store i8 1, ptr %16, align 1
  %51 = load i8, ptr %16, align 1
  %52 = trunc i8 %51 to i1
  %53 = zext i1 %52 to i8
  store i8 %53, ptr %16, align 1
  br label %54

54:                                               ; preds = %50
  br label %55

55:                                               ; preds = %54
  store i32 -1, ptr %15, align 4
  br label %151

56:                                               ; No predecessors!
  br label %57

57:                                               ; preds = %56
  br label %58

58:                                               ; preds = %57, %39
  %59 = getelementptr inbounds %struct.H5VL_file_get_args_t, ptr %14, i32 0, i32 0
  store i32 0, ptr %59, align 8
  %60 = getelementptr inbounds %struct.H5VL_file_get_args_t, ptr %14, i32 0, i32 1
  %61 = getelementptr inbounds %struct.anon.11, ptr %60, i32 0, i32 0
  store ptr %13, ptr %61, align 8
  %62 = load ptr, ptr %12, align 8
  %63 = load i64, ptr @H5P_LST_DATASET_XFER_ID_g, align 8
  %64 = call i32 @H5VL_file_get(ptr noundef %62, ptr noundef %14, i64 noundef %63, ptr noundef null)
  %65 = icmp slt i32 %64, 0
  br i1 %65, label %66, label %81

66:                                               ; preds = %58
  br label %67

67:                                               ; preds = %66
  br label %68

68:                                               ; preds = %67
  br label %69

69:                                               ; preds = %68
  %70 = load i64, ptr @H5E_REFERENCE_g, align 8
  %71 = load i64, ptr @H5E_CANTGET_g, align 8
  %72 = call i32 (ptr, ptr, i32, i64, i64, ptr, ...) @H5E_printf_stack(ptr noundef @.str, ptr noundef @__func__.H5R__decode_token_compat, i32 noundef 128, i64 noundef %70, i64 noundef %71, ptr noundef @.str.19)
  br label %73

73:                                               ; preds = %69
  store i8 1, ptr %16, align 1
  %74 = load i8, ptr %16, align 1
  %75 = trunc i8 %74 to i1
  %76 = zext i1 %75 to i8
  store i8 %76, ptr %16, align 1
  br label %77

77:                                               ; preds = %73
  br label %78

78:                                               ; preds = %77
  store i32 -1, ptr %15, align 4
  br label %151

79:                                               ; No predecessors!
  br label %80

80:                                               ; preds = %79
  br label %81

81:                                               ; preds = %80, %58
  %82 = load i32, ptr %8, align 4
  %83 = icmp eq i32 %82, 0
  br i1 %83, label %84, label %107

84:                                               ; preds = %81
  store i64 8, ptr %17, align 8
  %85 = load ptr, ptr %9, align 8
  %86 = load ptr, ptr %10, align 8
  %87 = getelementptr inbounds %struct.H5VL_file_cont_info_t, ptr %13, i32 0, i32 2
  %88 = load i64, ptr %87, align 8
  %89 = call i32 @H5R__decode_token_obj_compat(ptr noundef %85, ptr noundef %17, ptr noundef %86, i64 noundef %88)
  %90 = icmp slt i32 %89, 0
  br i1 %90, label %91, label %106

91:                                               ; preds = %84
  br label %92

92:                                               ; preds = %91
  br label %93

93:                                               ; preds = %92
  br label %94

94:                                               ; preds = %93
  %95 = load i64, ptr @H5E_REFERENCE_g, align 8
  %96 = load i64, ptr @H5E_CANTDECODE_g, align 8
  %97 = call i32 (ptr, ptr, i32, i64, i64, ptr, ...) @H5E_printf_stack(ptr noundef @.str, ptr noundef @__func__.H5R__decode_token_compat, i32 noundef 135, i64 noundef %95, i64 noundef %96, ptr noundef @.str.8)
  br label %98

98:                                               ; preds = %94
  store i8 1, ptr %16, align 1
  %99 = load i8, ptr %16, align 1
  %100 = trunc i8 %99 to i1
  %101 = zext i1 %100 to i8
  store i8 %101, ptr %16, align 1
  br label %102

102:                                              ; preds = %98
  br label %103

103:                                              ; preds = %102
  store i32 -1, ptr %15, align 4
  br label %151

104:                                              ; No predecessors!
  br label %105

105:                                              ; preds = %104
  br label %106

106:                                              ; preds = %105, %84
  br label %150

107:                                              ; preds = %81
  store i64 12, ptr %18, align 8
  store ptr null, ptr %19, align 8
  %108 = load ptr, ptr %12, align 8
  %109 = call ptr @H5VL_object_data(ptr noundef %108)
  store ptr %109, ptr %19, align 8
  %110 = icmp eq ptr null, %109
  br i1 %110, label %111, label %126

111:                                              ; preds = %107
  br label %112

112:                                              ; preds = %111
  br label %113

113:                                              ; preds = %112
  br label %114

114:                                              ; preds = %113
  %115 = load i64, ptr @H5E_ARGS_g, align 8
  %116 = load i64, ptr @H5E_BADTYPE_g, align 8
  %117 = call i32 (ptr, ptr, i32, i64, i64, ptr, ...) @H5E_printf_stack(ptr noundef @.str, ptr noundef @__func__.H5R__decode_token_compat, i32 noundef 143, i64 noundef %115, i64 noundef %116, ptr noundef @.str.23)
  br label %118

118:                                              ; preds = %114
  store i8 1, ptr %16, align 1
  %119 = load i8, ptr %16, align 1
  %120 = trunc i8 %119 to i1
  %121 = zext i1 %120 to i8
  store i8 %121, ptr %16, align 1
  br label %122

122:                                              ; preds = %118
  br label %123

123:                                              ; preds = %122
  store i32 -1, ptr %15, align 4
  br label %151

124:                                              ; No predecessors!
  br label %125

125:                                              ; preds = %124
  br label %126

126:                                              ; preds = %125, %107
  %127 = load ptr, ptr %19, align 8
  %128 = load ptr, ptr %9, align 8
  %129 = load ptr, ptr %10, align 8
  %130 = getelementptr inbounds %struct.H5VL_file_cont_info_t, ptr %13, i32 0, i32 2
  %131 = load i64, ptr %130, align 8
  %132 = call i32 @H5R__decode_token_region_compat(ptr noundef %127, ptr noundef %128, ptr noundef %18, ptr noundef %129, i64 noundef %131, ptr noundef null)
  %133 = icmp slt i32 %132, 0
  br i1 %133, label %134, label %149

134:                                              ; preds = %126
  br label %135

135:                                              ; preds = %134
  br label %136

136:                                              ; preds = %135
  br label %137

137:                                              ; preds = %136
  %138 = load i64, ptr @H5E_REFERENCE_g, align 8
  %139 = load i64, ptr @H5E_CANTDECODE_g, align 8
  %140 = call i32 (ptr, ptr, i32, i64, i64, ptr, ...) @H5E_printf_stack(ptr noundef @.str, ptr noundef @__func__.H5R__decode_token_compat, i32 noundef 147, i64 noundef %138, i64 noundef %139, ptr noundef @.str.34)
  br label %141

141:                                              ; preds = %137
  store i8 1, ptr %16, align 1
  %142 = load i8, ptr %16, align 1
  %143 = trunc i8 %142 to i1
  %144 = zext i1 %143 to i8
  store i8 %144, ptr %16, align 1
  br label %145

145:                                              ; preds = %141
  br label %146

146:                                              ; preds = %145
  store i32 -1, ptr %15, align 4
  br label %151

147:                                              ; No predecessors!
  br label %148

148:                                              ; preds = %147
  br label %149

149:                                              ; preds = %148, %126
  br label %150

150:                                              ; preds = %149, %106
  br label %151

151:                                              ; preds = %150, %146, %123, %103, %78, %55, %36
  %152 = load i64, ptr %11, align 8
  %153 = icmp ne i64 %152, -1
  br i1 %153, label %154, label %171

154:                                              ; preds = %151
  %155 = load i64, ptr %11, align 8
  %156 = call i32 @H5I_dec_ref(i64 noundef %155)
  %157 = icmp slt i32 %156, 0
  br i1 %157, label %158, label %171

158:                                              ; preds = %154
  br label %159

159:                                              ; preds = %158
  br label %160

160:                                              ; preds = %159
  br label %161

161:                                              ; preds = %160
  %162 = load i64, ptr @H5E_REFERENCE_g, align 8
  %163 = load i64, ptr @H5E_CANTDEC_g, align 8
  %164 = call i32 (ptr, ptr, i32, i64, i64, ptr, ...) @H5E_printf_stack(ptr noundef @.str, ptr noundef @__func__.H5R__decode_token_compat, i32 noundef 152, i64 noundef %162, i64 noundef %163, ptr noundef @.str.25)
  br label %165

165:                                              ; preds = %161
  store i8 1, ptr %16, align 1
  %166 = load i8, ptr %16, align 1
  %167 = trunc i8 %166 to i1
  %168 = zext i1 %167 to i8
  store i8 %168, ptr %16, align 1
  br label %169

169:                                              ; preds = %165
  store i32 -1, ptr %15, align 4
  br label %170

170:                                              ; preds = %169
  br label %171

171:                                              ; preds = %170, %154, %151
  %172 = load i32, ptr %15, align 4
  ret i32 %172
}