; Function Attrs: nounwind uwtable
define internal fastcc range(i32 -1, 1) i32 @H5R__decode_token_compat(ptr noundef %0, i32 noundef %1, i32 noundef %2, ptr noundef %3, ptr noundef %4) unnamed_addr #0 {
  %6 = alloca %struct.H5VL_file_cont_info_t, align 8
  %7 = alloca %struct.H5VL_file_get_args_t, align 8
  %8 = alloca i64, align 8
  %9 = alloca i64, align 8
  call void @llvm.memcpy.p0.p0.i64(ptr noundef nonnull align 8 dereferenceable(32) %6, ptr noundef nonnull align 8 dereferenceable(32) @__const.H5R__decode_token_compat.cont_info, i64 32, i1 false)
  %10 = tail call i64 @H5F_get_file_id(ptr noundef %0, i32 noundef %1, i1 noundef zeroext false) #6
  %11 = icmp slt i64 %10, 0
  br i1 %11, label %55, label %12

12:                                               ; preds = %5
  %13 = tail call ptr @H5VL_vol_object(i64 noundef %10) #6
  %14 = icmp eq ptr %13, null
  br i1 %14, label %15, label %19

15:                                               ; preds = %12
  %16 = load i64, ptr @H5E_ARGS_g, align 8
  %17 = load i64, ptr @H5E_BADTYPE_g, align 8
  %18 = tail call i32 (ptr, ptr, i32, i64, i64, ptr, ...) @H5E_printf_stack(ptr noundef nonnull @.str, ptr noundef nonnull @__func__.H5R__decode_token_compat, i32 noundef 120, i64 noundef %16, i64 noundef %17, ptr noundef nonnull @.str.5) #6
  br label %.thread

19:                                               ; preds = %12
  store i32 0, ptr %7, align 8
  %20 = getelementptr inbounds i8, ptr %7, i64 8
  store ptr %6, ptr %20, align 8
  %21 = load i64, ptr @H5P_LST_DATASET_XFER_ID_g, align 8
  %22 = call i32 @H5VL_file_get(ptr noundef nonnull %13, ptr noundef nonnull %7, i64 noundef %21, ptr noundef null) #6
  %23 = icmp slt i32 %22, 0
  br i1 %23, label %24, label %28

24:                                               ; preds = %19
  %25 = load i64, ptr @H5E_REFERENCE_g, align 8
  %26 = load i64, ptr @H5E_CANTGET_g, align 8
  %27 = call i32 (ptr, ptr, i32, i64, i64, ptr, ...) @H5E_printf_stack(ptr noundef nonnull @.str, ptr noundef nonnull @__func__.H5R__decode_token_compat, i32 noundef 128, i64 noundef %25, i64 noundef %26, ptr noundef nonnull @.str.19) #6
  br label %.thread

28:                                               ; preds = %19
  %29 = icmp eq i32 %2, 0
  br i1 %29, label %30, label %39

30:                                               ; preds = %28
  store i64 8, ptr %8, align 8
  %31 = getelementptr inbounds i8, ptr %6, i64 16
  %32 = load i64, ptr %31, align 8
  %33 = call i32 @H5R__decode_token_obj_compat(ptr noundef %3, ptr noundef nonnull %8, ptr noundef %4, i64 noundef %32) #6
  %34 = icmp slt i32 %33, 0
  br i1 %34, label %35, label %.thread

35:                                               ; preds = %30
  %36 = load i64, ptr @H5E_REFERENCE_g, align 8
  %37 = load i64, ptr @H5E_CANTDECODE_g, align 8
  %38 = call i32 (ptr, ptr, i32, i64, i64, ptr, ...) @H5E_printf_stack(ptr noundef nonnull @.str, ptr noundef nonnull @__func__.H5R__decode_token_compat, i32 noundef 135, i64 noundef %36, i64 noundef %37, ptr noundef nonnull @.str.8) #6
  br label %.thread

39:                                               ; preds = %28
  store i64 12, ptr %9, align 8
  %40 = call ptr @H5VL_object_data(ptr noundef nonnull %13) #6
  %41 = icmp eq ptr %40, null
  br i1 %41, label %42, label %46

42:                                               ; preds = %39
  %43 = load i64, ptr @H5E_ARGS_g, align 8
  %44 = load i64, ptr @H5E_BADTYPE_g, align 8
  %45 = call i32 (ptr, ptr, i32, i64, i64, ptr, ...) @H5E_printf_stack(ptr noundef nonnull @.str, ptr noundef nonnull @__func__.H5R__decode_token_compat, i32 noundef 143, i64 noundef %43, i64 noundef %44, ptr noundef nonnull @.str.23) #6
  br label %.thread

46:                                               ; preds = %39
  %47 = getelementptr inbounds i8, ptr %6, i64 16
  %48 = load i64, ptr %47, align 8
  %49 = call i32 @H5R__decode_token_region_compat(ptr noundef nonnull %40, ptr noundef %3, ptr noundef nonnull %9, ptr noundef %4, i64 noundef %48, ptr noundef null) #6
  %50 = icmp slt i32 %49, 0
  br i1 %50, label %51, label %.thread

51:                                               ; preds = %46
  %52 = load i64, ptr @H5E_REFERENCE_g, align 8
  %53 = load i64, ptr @H5E_CANTDECODE_g, align 8
  %54 = call i32 (ptr, ptr, i32, i64, i64, ptr, ...) @H5E_printf_stack(ptr noundef nonnull @.str, ptr noundef nonnull @__func__.H5R__decode_token_compat, i32 noundef 147, i64 noundef %52, i64 noundef %53, ptr noundef nonnull @.str.34) #6
  br label %.thread

55:                                               ; preds = %5
  %56 = load i64, ptr @H5E_ARGS_g, align 8
  %57 = load i64, ptr @H5E_BADTYPE_g, align 8
  %58 = tail call i32 (ptr, ptr, i32, i64, i64, ptr, ...) @H5E_printf_stack(ptr noundef nonnull @.str, ptr noundef nonnull @__func__.H5R__decode_token_compat, i32 noundef 116, i64 noundef %56, i64 noundef %57, ptr noundef nonnull @.str.18) #6
  %.not = icmp eq i64 %10, -1
  br i1 %.not, label %65, label %.thread

.thread:                                          ; preds = %15, %24, %35, %42, %51, %46, %30, %55
  %.026 = phi i32 [ -1, %55 ], [ 0, %46 ], [ -1, %51 ], [ -1, %42 ], [ 0, %30 ], [ -1, %35 ], [ -1, %24 ], [ -1, %15 ]
  %59 = call i32 @H5I_dec_ref(i64 noundef %10) #6
  %60 = icmp slt i32 %59, 0
  br i1 %60, label %61, label %65

61:                                               ; preds = %.thread
  %62 = load i64, ptr @H5E_REFERENCE_g, align 8
  %63 = load i64, ptr @H5E_CANTDEC_g, align 8
  %64 = call i32 (ptr, ptr, i32, i64, i64, ptr, ...) @H5E_printf_stack(ptr noundef nonnull @.str, ptr noundef nonnull @__func__.H5R__decode_token_compat, i32 noundef 152, i64 noundef %62, i64 noundef %63, ptr noundef nonnull @.str.25) #6
  br label %65

65:                                               ; preds = %61, %.thread, %55
  %.1 = phi i32 [ -1, %61 ], [ %.026, %.thread ], [ -1, %55 ]
  ret i32 %.1
}